target datalayout = "e-m:e-p270:32:32-p271:32:32-p272:64:64-i64:64-i128:128-f80:128-n8:16:32:64-S128"
target triple = "x86_64-pc-linux-gnu"

; Function Attrs: nounwind uwtable
define internal i32 @ff_poll_interrupt(ptr noundef %0, i64 noundef %1, i32 noundef %2, ptr noundef %3) #0 {
  %5 = alloca i32, align 4
  %6 = alloca ptr, align 8
  %7 = alloca i64, align 8
  %8 = alloca i32, align 4
  %9 = alloca ptr, align 8
  %10 = alloca i32, align 4
  %11 = alloca i32, align 4
  %12 = alloca i32, align 4
  store ptr %0, ptr %6, align 8, !tbaa !29
  store i64 %1, ptr %7, align 8, !tbaa !13
  store i32 %2, ptr %8, align 4, !tbaa !4
  store ptr %3, ptr %9, align 8, !tbaa !15
  call void @llvm.lifetime.start.p0(i64 4, ptr %10) #10
  %13 = load i32, ptr %8, align 4, !tbaa !4
  %14 = sdiv i32 %13, 100
  store i32 %14, ptr %10, align 4, !tbaa !4
  call void @llvm.lifetime.start.p0(i64 4, ptr %11) #10
  store i32 0, ptr %11, align 4, !tbaa !4
  br label %15

15:                                               ; preds = %46, %4
  %16 = load ptr, ptr %9, align 8, !tbaa !15
  %17 = call i32 @ff_check_interrupt(ptr noundef %16)
  %18 = icmp ne i32 %17, 0
  br i1 %18, label %19, label %20

19:                                               ; preds = %15
  store i32 -1414092869, ptr %5, align 4
  store i32 1, ptr %12, align 4
  br label %54

20:                                               ; preds = %15
  %21 = load ptr, ptr %6, align 8, !tbaa !29
  %22 = load i64, ptr %7, align 8, !tbaa !13
  %23 = call i32 @poll(ptr noundef %21, i64 noundef %22, i32 noundef 100)
  store i32 %23, ptr %11, align 4, !tbaa !4
  %24 = load i32, ptr %11, align 4, !tbaa !4
  %25 = icmp ne i32 %24, 0
  br i1 %25, label %26, label %38

26:                                               ; preds = %20
  %27 = load i32, ptr %11, align 4, !tbaa !4
  %28 = icmp slt i32 %27, 0
  br i1 %28, label %29, label %33

29:                                               ; preds = %26
  %30 = call ptr @__errno_location() #11
  %31 = load i32, ptr %30, align 4, !tbaa !4
  %32 = sub nsw i32 0, %31
  store i32 %32, ptr %11, align 4, !tbaa !4
  br label %33

33:                                               ; preds = %29, %26
  %34 = load i32, ptr %11, align 4, !tbaa !4
  %35 = icmp eq i32 %34, -4
  br i1 %35, label %36, label %37

36:                                               ; preds = %33
  br label %39

37:                                               ; preds = %33
  br label %48

38:                                               ; preds = %20
  br label %39

39:                                               ; preds = %38, %36
  %40 = load i32, ptr %8, align 4, !tbaa !4
  %41 = icmp sle i32 %40, 0
  br i1 %41, label %46, label %42

42:                                               ; preds = %39
  %43 = load i32, ptr %10, align 4, !tbaa !4
  %44 = add nsw i32 %43, -1
  store i32 %44, ptr %10, align 4, !tbaa !4
  %45 = icmp sgt i32 %43, 0
  br label %46

46:                                               ; preds = %42, %39
  %47 = phi i1 [ true, %39 ], [ %45, %42 ]
  br i1 %47, label %15, label %48, !llvm.loop !31

48:                                               ; preds = %46, %37
  %49 = load i32, ptr %11, align 4, !tbaa !4
  %50 = icmp ne i32 %49, 0
  br i1 %50, label %52, label %51

51:                                               ; preds = %48
  store i32 -110, ptr %5, align 4
  store i32 1, ptr %12, align 4
  br label %54

52:                                               ; preds = %48
  %53 = load i32, ptr %11, align 4, !tbaa !4
  store i32 %53, ptr %5, align 4
  store i32 1, ptr %12, align 4
  br label %54

54:                                               ; preds = %52, %51, %19
  call void @llvm.lifetime.end.p0(i64 4, ptr %11) #10
  call void @llvm.lifetime.end.p0(i64 4, ptr %10) #10
  %55 = load i32, ptr %5, align 4
  ret i32 %55
}