; Function Attrs: nounwind uwtable
define internal fastcc range(i32 -2147483647, -2147483648) i32 @ff_poll_interrupt(ptr noundef nonnull %0, i64 noundef range(i64 1, 2147483648) %1, i32 noundef %2, ptr noundef %3) unnamed_addr #1 {
  %5 = icmp slt i32 %2, 1
  br i1 %5, label %.critedge.us.preheader, label %.critedge.outer.preheader

.critedge.us.preheader:                           ; preds = %4
  %6 = tail call i32 @ff_check_interrupt(ptr noundef %3) #12
  %.not.us40 = icmp eq i32 %6, 0
  br i1 %.not.us40, label %.lr.ph, label %.loopexit

.critedge.outer.preheader:                        ; preds = %4
  %7 = udiv i32 %2, 100
  br label %.critedge.outer

.critedge.outer:                                  ; preds = %.critedge.outer.preheader, %25
  %.011.ph = phi i32 [ %26, %25 ], [ %7, %.critedge.outer.preheader ]
  %8 = tail call i32 @ff_check_interrupt(ptr noundef %3) #12
  %.not = icmp eq i32 %8, 0
  br i1 %.not, label %17, label %.loopexit

.lr.ph:                                           ; preds = %.critedge.us.preheader, %.critedge.us
  %9 = tail call i32 @poll(ptr noundef nonnull %0, i64 noundef %1, i32 noundef 100) #12
  %.not15.us = icmp eq i32 %9, 0
  br i1 %.not15.us, label %.critedge.us, label %10

10:                                               ; preds = %.lr.ph
  %11 = icmp slt i32 %9, 0
  br i1 %11, label %12, label %.thread

12:                                               ; preds = %10
  %13 = tail call ptr @__errno_location() #13
  %14 = load i32, ptr %13, align 4, !tbaa !12
  %15 = icmp eq i32 %14, 4
  br i1 %15, label %.critedge.us, label %.thread.loopexit.split.loop.exit

.critedge.us:                                     ; preds = %12, %.lr.ph
  %16 = tail call i32 @ff_check_interrupt(ptr noundef %3) #12
  %.not.us = icmp eq i32 %16, 0
  br i1 %.not.us, label %.lr.ph, label %.loopexit

17:                                               ; preds = %.critedge.outer
  %18 = tail call i32 @poll(ptr noundef nonnull %0, i64 noundef %1, i32 noundef 100) #12
  %.not15 = icmp eq i32 %18, 0
  br i1 %.not15, label %25, label %19

19:                                               ; preds = %17
  %20 = icmp slt i32 %18, 0
  br i1 %20, label %21, label %.thread

21:                                               ; preds = %19
  %22 = tail call ptr @__errno_location() #13
  %23 = load i32, ptr %22, align 4, !tbaa !12
  %24 = icmp eq i32 %23, 4
  br i1 %24, label %25, label %.thread.loopexit.split.loop.exit

25:                                               ; preds = %17, %21
  %.1 = phi i32 [ -4, %21 ], [ 0, %17 ]
  %26 = add nsw i32 %.011.ph, -1
  %27 = icmp sgt i32 %.011.ph, 0
  br i1 %27, label %.critedge.outer, label %.thread, !llvm.loop !19

.thread.loopexit.split.loop.exit:                 ; preds = %21, %12
  %.us-phi21 = phi i32 [ %14, %12 ], [ %23, %21 ]
  %28 = sub nsw i32 0, %.us-phi21
  br label %.thread

.thread:                                          ; preds = %25, %19, %10, %.thread.loopexit.split.loop.exit
  %.2 = phi i32 [ %28, %.thread.loopexit.split.loop.exit ], [ %9, %10 ], [ %18, %19 ], [ %.1, %25 ]
  %.not16 = icmp eq i32 %.2, 0
  %..2 = select i1 %.not16, i32 -110, i32 %.2
  br label %.loopexit

.loopexit:                                        ; preds = %.critedge.outer, %.critedge.us, %.critedge.us.preheader, %.thread
  %.012 = phi i32 [ %..2, %.thread ], [ -1414092869, %.critedge.us.preheader ], [ -1414092869, %.critedge.us ], [ -1414092869, %.critedge.outer ]
  ret i32 %.012
}